; Function Attrs: mustprogress uwtable
define void @_ZN18duckdb_fastpforlib8internal14__fastunpack38EPKjPm(ptr noalias noundef %0, ptr noalias noundef initializes((0, 56)) %1) local_unnamed_addr #5 {
  %3 = alloca ptr, align 8
  tail call void @llvm.experimental.noalias.scope.decl(metadata !7835)
  tail call void @llvm.experimental.noalias.scope.decl(metadata !7838)
  %4 = load i32, ptr %0, align 4, !tbaa !7, !noalias !7841
  %5 = zext i32 %4 to i64
  %6 = getelementptr inbounds nuw i8, ptr %0, i64 4
  %7 = load i32, ptr %6, align 4, !tbaa !7, !noalias !7841
  %8 = and i32 %7, 63
  %9 = zext nneg i32 %8 to i64
  %10 = shl nuw nsw i64 %9, 32
  %11 = or disjoint i64 %10, %5
  store i64 %11, ptr %1, align 8, !tbaa !9, !alias.scope !7841
  tail call void @llvm.experimental.noalias.scope.decl(metadata !7842)
  %12 = getelementptr inbounds nuw i8, ptr %1, i64 8
  tail call void @llvm.experimental.noalias.scope.decl(metadata !7845)
  %13 = lshr i32 %7, 6
  %14 = zext nneg i32 %13 to i64
  %15 = getelementptr inbounds nuw i8, ptr %0, i64 8
  %16 = load i32, ptr %15, align 4, !tbaa !7, !noalias !7848
  %17 = and i32 %16, 4095
  %18 = zext nneg i32 %17 to i64
  %19 = shl nuw nsw i64 %18, 26
  %20 = or disjoint i64 %19, %14
  store i64 %20, ptr %12, align 8, !tbaa !9, !alias.scope !7848
  tail call void @llvm.experimental.noalias.scope.decl(metadata !7849)
  %21 = getelementptr inbounds nuw i8, ptr %1, i64 16
  tail call void @llvm.experimental.noalias.scope.decl(metadata !7852)
  %22 = lshr i32 %16, 12
  %23 = zext nneg i32 %22 to i64
  %24 = getelementptr inbounds nuw i8, ptr %0, i64 12
  %25 = load i32, ptr %24, align 4, !tbaa !7, !noalias !7855
  %26 = and i32 %25, 262143
  %27 = zext nneg i32 %26 to i64
  %28 = shl nuw nsw i64 %27, 20
  %29 = or disjoint i64 %28, %23
  store i64 %29, ptr %21, align 8, !tbaa !9, !alias.scope !7855
  tail call void @llvm.experimental.noalias.scope.decl(metadata !7856)
  %30 = getelementptr inbounds nuw i8, ptr %1, i64 24
  tail call void @llvm.experimental.noalias.scope.decl(metadata !7859)
  %31 = lshr i32 %25, 18
  %32 = zext nneg i32 %31 to i64
  %33 = getelementptr inbounds nuw i8, ptr %0, i64 16
  %34 = load i32, ptr %33, align 4, !tbaa !7, !noalias !7862
  %35 = and i32 %34, 16777215
  %36 = zext nneg i32 %35 to i64
  %37 = shl nuw nsw i64 %36, 14
  %38 = or disjoint i64 %37, %32
  store i64 %38, ptr %30, align 8, !tbaa !9, !alias.scope !7862
  tail call void @llvm.experimental.noalias.scope.decl(metadata !7863)
  %39 = getelementptr inbounds nuw i8, ptr %1, i64 32
  tail call void @llvm.experimental.noalias.scope.decl(metadata !7866)
  %40 = lshr i32 %34, 24
  %41 = zext nneg i32 %40 to i64
  %42 = getelementptr inbounds nuw i8, ptr %0, i64 20
  %43 = load i32, ptr %42, align 4, !tbaa !7, !noalias !7869
  %44 = and i32 %43, 1073741823
  %45 = zext nneg i32 %44 to i64
  %46 = shl nuw nsw i64 %45, 8
  %47 = or disjoint i64 %46, %41
  store i64 %47, ptr %39, align 8, !tbaa !9, !alias.scope !7869
  tail call void @llvm.experimental.noalias.scope.decl(metadata !7870)
  %48 = getelementptr inbounds nuw i8, ptr %1, i64 40
  tail call void @llvm.experimental.noalias.scope.decl(metadata !7873)
  %49 = lshr i32 %43, 30
  %50 = zext nneg i32 %49 to i64
  %51 = getelementptr inbounds nuw i8, ptr %0, i64 24
  %52 = load i32, ptr %51, align 4, !tbaa !7, !noalias !7876
  %53 = zext i32 %52 to i64
  %54 = shl nuw nsw i64 %53, 2
  %55 = or disjoint i64 %54, %50
  %56 = getelementptr inbounds nuw i8, ptr %0, i64 28
  %57 = load i32, ptr %56, align 4, !tbaa !7, !noalias !7876
  %58 = and i32 %57, 15
  %59 = zext nneg i32 %58 to i64
  %60 = shl nuw nsw i64 %59, 34
  %61 = or disjoint i64 %60, %55
  store i64 %61, ptr %48, align 8, !tbaa !9, !alias.scope !7876
  tail call void @llvm.experimental.noalias.scope.decl(metadata !7877)
  %62 = getelementptr inbounds nuw i8, ptr %1, i64 48
  tail call void @llvm.experimental.noalias.scope.decl(metadata !7880)
  %63 = lshr i32 %57, 4
  %64 = zext nneg i32 %63 to i64
  %65 = getelementptr inbounds nuw i8, ptr %0, i64 32
  store ptr %65, ptr %3, align 8, !tbaa !1879, !noalias !7883
  %66 = load i32, ptr %65, align 4, !tbaa !7, !noalias !7883
  %67 = and i32 %66, 1023
  %68 = zext nneg i32 %67 to i64
  %69 = shl nuw nsw i64 %68, 28
  %70 = or disjoint i64 %69, %64
  store i64 %70, ptr %62, align 8, !tbaa !9, !alias.scope !7883
  call void @_ZN18duckdb_fastpforlib8internal8UnrollerILt38ELt7EE6UnpackERrPKjPm(ptr noundef nonnull align 8 dereferenceable(8) %3, ptr noundef nonnull %1)
  ret void
}